ccopy_reg
_reconstructor
p0
(cpandas.core.frame
DataFrame
p1
c__builtin__
object
p2
Ntp3
Rp4
(dp5
S'_metadata'
p6
(lp7
sS'_typ'
p8
S'dataframe'
p9
sS'_data'
p10
g0
(cpandas.core.internals
BlockManager
p11
g2
Ntp12
Rp13
((lp14
cpandas.indexes.base
_new_Index
p15
(cpandas.indexes.base
Index
p16
(dp17
S'data'
p18
cnumpy.core.multiarray
_reconstruct
p19
(cnumpy
ndarray
p20
(I0
tp21
S'b'
p22
tp23
Rp24
(I1
(L6L
tp25
cnumpy
dtype
p26
(S'O8'
p27
I0
I1
tp28
Rp29
(I3
S'|'
p30
NNNI-1
I-1
I63
tp31
bI00
(lp32
VSUBJ
p33
aV#
p34
aVCOURSE_TITLE
p35
aVCROSS_LIST
p36
aVPREREQUISTES
p37
aVOTHER_INFORMATION
p38
atp39
bsS'name'
p40
Nstp41
Rp42
ag15
(cpandas.indexes.range
RangeIndex
p43
(dp44
S'start'
p45
I0
sS'step'
p46
I1
sS'stop'
p47
I277
sg40
Nstp48
Rp49
a(lp50
g19
(g20
(I0
tp51
g22
tp52
Rp53
(I1
(L6L
L277L
tp54
g29
I00
(lp55
VAAEC
p56
aVAFST
p57
aFnan
ag57
ag57
aFnan
ag57
ag57
aVAINS
p58
aFnan
aVALS
p59
aFnan
aVAPS
p60
ag60
aVARBC
p61
aVARCH
p62
ag62
aVART
p63
ag63
ag63
ag63
aFnan
ag63
ag63
aFnan
ag63
ag63
ag63
aFnan
aVSUBJ
p64
ag63
ag63
ag63
ag63
ag63
aFnan
aFnan
aVCLA
p65
ag65
ag65
aFnan
ag65
aVCOMM
p66
aVECON
p67
aFnan
ag67
aFnan
aFnan
aFnan
aVENGL
p68
ag68
ag68
ag68
ag68
ag68
ag68
ag64
ag68
aFnan
ag68
ag68
aFnan
ag68
aFnan
ag68
aFnan
aFnan
aFnan
aFnan
ag68
aFnan
aFnan
aFnan
aFnan
ag68
ag68
aVFR
p69
ag69
aFnan
aFnan
ag69
aFnan
aFnan
ag69
aFnan
aFnan
aFnan
ag64
ag69
aFnan
aFnan
aFnan
ag69
aFnan
aVFREC
p70
aVGER
p71
ag71
aFnan
aFnan
aFnan
aFnan
aFnan
aFnan
aFnan
aFnan
aFnan
aFnan
aFnan
aFnan
aFnan
aFnan
ag71
aFnan
aFnan
ag71
aFnan
aVHIST
p72
ag72
ag64
ag72
ag72
ag72
ag72
ag72
aFnan
ag72
ag72
ag72
aFnan
ag72
aFnan
ag72
ag72
ag72
aVHTM
p73
aFnan
aVHUM
p74
ag74
ag74
ag74
ag74
aVITDS
p75
aVJUD
p76
ag76
aVLAR
p77
aVLDRS
p78
aFnan
ag64
aVMGT
p79
aVMUS
p80
ag80
ag80
ag80
ag80
ag80
ag80
aVPHIL
p81
ag81
ag81
ag81
ag81
aFnan
ag81
aFnan
ag81
ag81
ag81
ag81
aFnan
ag81
ag81
ag81
ag81
ag81
ag81
ag81
ag64
ag81
ag81
ag81
ag81
aFnan
ag81
aFnan
aFnan
aFnan
aVPSCI
p82
aFnan
ag82
ag82
ag82
aFnan
aFnan
aFnan
aVRLCL
p83
ag83
ag83
aFnan
ag83
aFnan
ag83
ag83
ag83
ag83
ag64
ag83
ag83
ag83
ag83
ag83
ag83
aFnan
ag83
ag83
ag83
ag83
aFnan
ag83
ag83
ag83
ag83
ag83
ag83
aVRUS
p84
ag84
aFnan
aFnan
ag84
aFnan
aFnan
ag64
ag84
aFnan
aVSOC
p85
aFnan
ag85
ag85
aFnan
aVSPAN
p86
ag86
ag86
aFnan
ag86
ag86
ag86
ag86
aFnan
ag86
aVSPIA
p87
aVSTS
p88
ag88
ag88
ag88
ag88
aFnan
ag88
ag88
ag88
aFnan
ag64
ag88
aFnan
ag88
aFnan
aVTA
p89
ag89
aVUAP
p90
aFnan
aVUH
p91
aFnan
aVWGS
p92
aFnan
ag92
aFnan
ag92
ag92
ag92
aV2424
p93
aV1714
p94
aFnan
aV1814
p95
aV2204
p96
aFnan
aV2275
p97
aV2276
p98
aV1104
p99
aFnan
aV4204
p100
aFnan
aV1704
p101
aV4404
p102
aV2774
p103
aV3115
p104
aV3116
p105
ag99
aV2385
p106
aV2386
p107
aV3074
p108
aFnan
aV3084
p109
aV3094
p110
aFnan
aV3174
p111
aV3184
p112
aV3284
p113
aFnan
ag34
aV3384
p114
aV3484
p115
aV3584
p116
aV3884
p117
aV4104
p118
aFnan
aFnan
aV1134
p119
aV1134H
p120
aV2444
p121
aFnan
aV2454
p122
aV2064
p123
aV2894
p124
aFnan
aV4884
p125
aFnan
aFnan
aFnan
aV1604
p126
aV1614
p127
aV1624
p128
aV1634
p129
aV1644
p130
aV1654
p131
aV1664
p132
ag34
ag121
aFnan
aV3024
p133
aV3414
p134
aFnan
aV3424
p135
aFnan
aV3534
p136
aFnan
aFnan
aFnan
aFnan
aV3644
p137
aFnan
aFnan
aFnan
aFnan
aV4165
p138
aV4166
p139
aV2714
p140
aV3205
p141
aFnan
aFnan
aV3206
p142
aFnan
aFnan
aV3305
p143
aFnan
aFnan
aFnan
ag34
aV3306
p144
aFnan
aFnan
aFnan
ag135
aFnan
aV2554
p145
aV2724
p146
ag143
aFnan
aFnan
aFnan
aFnan
aFnan
aFnan
aFnan
aFnan
aFnan
aFnan
aFnan
aFnan
aFnan
aFnan
ag144
aFnan
aFnan
ag134
aFnan
aV1024
p147
aV1025
p148
ag34
aV1026
p149
aV2054
p150
ag97
ag98
aV2604
p151
aFnan
aV3054
p152
aV3114
p153
aV3144
p154
aFnan
aV3164
p155
aFnan
aV3304
p156
aV3374
p157
aV3714
p158
ag115
aFnan
aV1324
p159
ag126
ag101
aV2504
p160
ag102
aV1114
p161
aV2134
p162
aV2414
p163
aV4034
p164
aV1015
p165
aFnan
ag34
aV4324
p166
aV1005
p167
aV1006
p168
ag99
aV2115
p169
aV2116
p170
ag104
ag105
aV1204
p171
aV1304
p172
ag169
ag170
aV2125
p173
aFnan
aV2126
p174
aFnan
aV2304
p175
aV2605
p176
aV2606
p177
ag124
aFnan
aV3015
p178
aV3016
p179
aV3314
p180
aV3454
p181
ag100
aV4214
p182
aV4224
p183
ag34
aV4304
p184
ag166
aV4334
p185
aV4614
p186
aFnan
ag125
aFnan
aFnan
aFnan
ag124
aFnan
ag178
ag179
ag125
aFnan
aFnan
aFnan
ag147
aV1024H
p187
aV1034
p188
aFnan
aV1034H
p189
aFnan
aV1044
p190
ag119
ag120
aV1214
p191
ag34
aV1214H
p192
aV1904
p193
aV1904H
p194
aV2124
p195
ag162
ag96
aFnan
ag163
ag93
aV2424H
p196
ag121
aFnan
ag160
ag133
aV3214
p197
aV3224
p198
ag134
ag135
aV2734
p199
ag156
aFnan
aFnan
ag180
aFnan
aFnan
ag34
ag135
aFnan
aV2024
p200
aFnan
aV2254
p201
ag151
aFnan
aV2744
p202
aV2754
p203
aV2764
p204
aFnan
aV3404
p205
ag134
aV3444
p206
aV3474
p207
aFnan
ag115
ag147
aV1504
p208
ag150
aV2154
p209
ag201
aV2354
p210
aFnan
ag121
ag122
ag151
aFnan
ag34
aV3105
p211
aFnan
ag184
aFnan
aV2014
p212
ag200
aV4264
p213
aFnan
ag145
aFnan
aV1824
p214
aFnan
ag96
aFnan
aV2224
p215
aV2244
p216
ag201
aVCo-ops & Humanity
p217
aVIntro African American
p218
aVStudies
p219
aVIntro to African Studies
p220
aVRace & Gender in Rel & Cult
p221
aFnan
aVAfrican-American History
p222
ag222
aVIntro American Indian
p223
ag219
aVConcepts Comm Food
p224
aVSystems
p225
aVIntro to Appalachian Studies
p226
aVAppalachian Folk Cultures
p227
aVArab Culture and Civilization
p228
aVHistory of Architecture
p229
ag229
aVLanguage of Visual Arts
p230
aVSurv Hist West Art
p231
ag231
aVEgyptian Art and
p232
aVArchitecture
p233
aVGreek Art and Architecture
p234
aVEarly Mod Global Vis
p235
aVCulture
p236
aVIntroduction to Archaeology
p237
aVRoman Art and Architecture
p238
aVMedieval Art and
p239
ag233
aVCOURSE_TITLE
p240
aVRenaissance Art
p241
aVBaroque Art and Arch
p242
aV19th Century Art
p243
aVAmerican Art to 1914
p244
aVInterpretation of Visual Arts
p245
aFnan
aFnan
aVAncient Mediterranean World
p246
ag246
aVGreek and Roman Myth
p247
aFnan
aVClassical Lit in Tran
p248
aVThe Rhetorical Tradition
p249
aVIntro Philosophy Politics
p250
aVEcon
p251
aVAdv Philosophy Politics Econ
p252
aFnan
aFnan
aFnan
aVIntroduction to Poetry
p253
aVIntroduction to Short Fiction
p254
aVIntro to Detective Fiction
p255
aVIntroduction to Shakespeare
p256
aVIntro to World Literature
p257
aVIntro to Science Fiction
p258
aVIntro to Women's Literature
p259
ag240
ag247
aFnan
aVReligion and Literature
p260
aVGerman Literature in English
p261
aFnan
aVRussian Literature in English
p262
aFnan
aVLiterature and Ecology
p263
aFnan
aFnan
aFnan
aFnan
aVThe Postcolonial Novel
p264
aFnan
aFnan
aFnan
aFnan
aVShakespeare
p265
ag265
aVFrench Culture & Civ
p266
ag266
aFnan
aFnan
ag266
aFnan
aFnan
aVSurvey of French Literature
p267
aFnan
aFnan
aFnan
ag240
ag267
aFnan
aFnan
aFnan
aVMedieval-Renaissance
p268
ag236
aVNature and American Values
p269
aVGerman Culture & Civ
p270
aVSurvey of German Literature
p271
aFnan
aFnan
aFnan
aFnan
aFnan
aFnan
aFnan
aFnan
aFnan
aFnan
aFnan
aFnan
aFnan
aFnan
ag271
aFnan
aFnan
ag261
aFnan
aVAncient History
p272
aVIntro European Civ
p273
ag240
ag273
aVEngineering Cultures
p274
ag222
ag222
aVIntro Data in Social Context
p275
aFnan
aVThe American Civil War
p276
aVHistory of Capitalism
p277
aVAmerican Environmental
p278
aVHistory
p279
aVSexuality in American
p280
ag279
aVWorld of Alexander the Great
p281
aVFrench Empire
p282
aVWar and Medicine
p283
aVSocio-Cult Impacts of
p284
aVTourism
p285
aVHUM: Mod World
p286
aVIntro Hum and Arts
p287
ag226
aVIntro Amer Studies
p288
ag227
aVDesign Appreciation
p289
aVJudaism
p290
aVHebrew Bible/Old Testament
p291
aVEvol of the Am Land
p292
aVExploring Citizen Leadership
p293
aFnan
ag240
aVBus and Prof Ethics
p294
aVTheory/Fundamentals
p295
ag295
aVMusic Appreciation
p296
aVSurvey of Music
p297
ag297
aVMusic In America
p298
ag298
aVKnowledge and Reality
p299
aVMorality and Justice
p300
aVAncient/Medieval Phil
p301
ag301
aVHistory of Modern
p302
aVPhilosophy
p303
ag302
ag303
aVGlobal Ethics
p304
aVReason and Revolution
p305
ag305
ag250
ag251
aVPolitical Theory
p306
ag306
aVEthical Theory
p307
aVPhilosophy of Religion
p308
aVPhilosophy of Mind
p309
aVMetaphysics
p310
aVEpistemology
p311
ag240
aVPolitical Philosophy
p312
ag294
aVJurisprudence
p313
aVPhilosophy of Science
p314
aFnan
ag252
aFnan
aFnan
aFnan
ag250
ag251
ag306
ag306
ag252
aFnan
aFnan
aFnan
aVJudaism, Christianity, Islam
p315
ag315
aVReligion and the Modern
p316
aVWorld
p317
ag316
ag317
aVReligious Ethics
p318
ag246
ag246
aVThe Medieval World
p319
ag240
aVMedieval
p320
aVReligion and Culture In Asia
p321
aVReligion and Culture in Asia
p322
aVReligion in American Life
p323
ag290
ag221
aFnan
ag291
aVNew Testament
p324
ag324
aVGreek and Roman Mythology
p325
aFnan
ag288
ag260
aVReligion and Culture in India
p326
aVReligion in China and Japan
p327
aVJesus and The Gospels
p328
aVPaul and His Interpreters
p329
aVIntro Russian Civ
p330
aVSurvey 19th Century Rus Lit
p331
aFnan
aFnan
aVSurvey 20th Century Rus Lit
p332
aFnan
aFnan
ag240
ag262
aFnan
aVMinority Group Relations
p333
aFnan
aVFeminist Actvism
p334
ag275
aFnan
aVSpanish Culture / Civ
p335
aVSpan-Am Culture/Civ
p336
aVIntro Latino American
p337
ag219
aVEarly Penin Culture & Lit
p338
aVModern Penin Culture & Lit
p339
aVEarly Span-Am Culture & Lit
p340
aVMod Spanish Caribbean Cult
p341
aVLit
p342
aVMod Andean/S Cone Cult Lit
p343
aVCommunity Service Learning
p344
aVIntro Science, Tech, Society
p345
ag274
aVHum, Techn, & Life Sciences
p346
aVInnovation in Context
p347
aVHum, Tech, & Physical
p348
aVSciences
p349
aVGlobal Sci & Tech Policy
p350
aVScience Tech & Environment
p351
ag275
aFnan
ag240
aVSci & Techn in Modern
p352
aVSociety
p353
aVIssues in Sci, Tech, Society
p354
aFnan
aVIntroduction to Theatre
p355
aVIntroduction to Acting
p356
aVEnvironmental Ethics
p357
aFnan
aVHumanities&Global
p358
aVCitizenship
p359
aVIntro Women's & Gender
p360
ag219
ag221
aFnan
aVWomen and Creativity
p361
aVWomen and Science
p362
aVFeminist Activism
p363
aFnan
aFnan
aFnan
aFnan
aVRLCL2204,
p364
aVWGS2204
p365
aVHIST2275
p366
aVHIST2276
p367
aFnan
aFnan
aFnan
aFnan
aVHUM1704
p368
aVHUM4404
p369
aFnan
aFnan
aFnan
aFnan
aFnan
aFnan
aFnan
aFnan
aFnan
aFnan
aFnan
aFnan
aFnan
aFnan
aFnan
aVCROSS_LIST
p370
aFnan
aFnan
aFnan
aFnan
aFnan
aFnan
aFnan
aVRLCL1134
p371
aVRLCL1134H
p372
aVENGL2444,
p373
aVRLCL2444
p374
aVENGL2454
p375
aFnan
aVPHIL2894,
p376
aVPSCI2894
p377
aVPHIL4884,
p378
aVPSCI4884
p379
aFnan
aFnan
aFnan
aFnan
aFnan
aFnan
aFnan
aFnan
aFnan
ag370
aVCLA2444,
p380
ag374
aVRLCL3024
p381
aVGER3414
p382
aFnan
aVRUS3424
p383
aFnan
aFnan
aFnan
aFnan
aFnan
aFnan
aFnan
aFnan
aFnan
aFnan
aFnan
aFnan
aFnan
aFnan
aFnan
aFnan
aFnan
aFnan
aFnan
aFnan
aFnan
aFnan
aFnan
aFnan
ag370
aFnan
aFnan
aFnan
aFnan
aFnan
aFnan
aVLAR2554
p384
aFnan
aFnan
aFnan
aFnan
aFnan
aFnan
aFnan
aFnan
aFnan
aFnan
aFnan
aFnan
aFnan
aFnan
aFnan
aFnan
aFnan
aFnan
aFnan
aVENGL3414
p385
aFnan
aFnan
aFnan
ag370
aFnan
aVSTS2054
p386
aVAFST2275
p387
aVAFST2276
p388
aVSOC2604,
p389
aVSTS2604
p390
aFnan
aFnan
aFnan
aFnan
aFnan
aFnan
aFnan
aFnan
aFnan
aFnan
aFnan
aFnan
aFnan
aVAPS1704
p391
aVRLCL2504
p392
aVAPS4404
p393
aFnan
aVRLCL2134
p394
aVRLCL2414
p395
aFnan
aFnan
aFnan
ag370
aVPHIL4324
p396
aFnan
aFnan
aFnan
aFnan
aFnan
aFnan
aFnan
aFnan
aFnan
aFnan
aFnan
aFnan
aFnan
aFnan
aFnan
aFnan
aFnan
aFnan
aVECON2894,
p397
ag377
aVPSCI3015
p398
aVPSCI3016
p399
aFnan
aFnan
aFnan
aFnan
aFnan
ag370
aFnan
aVMGT4324
p400
aFnan
aFnan
aFnan
aVECON4884,
p401
ag379
aFnan
aFnan
ag397
aVPHIL2894
p402
aVPHIL3015
p403
aVPHIL3016
p404
ag401
aVPHIL4884
p405
aFnan
aFnan
aFnan
aFnan
aFnan
aFnan
aFnan
aFnan
aFnan
aVCLA1134
p406
aVCLA1134H
p407
aFnan
ag370
aFnan
aFnan
aFnan
aFnan
aVJUD2134
p408
aVAFST2204,
p409
ag365
aVJUD2414
p410
aFnan
aFnan
ag380
aVENGL2444
p411
aVHUM2504
p412
aVENGL3024
p413
aFnan
aFnan
aFnan
aFnan
aFnan
aFnan
aFnan
aFnan
aFnan
aFnan
aFnan
ag370
aVENGL3424
p414
aFnan
aFnan
aFnan
aVWGS2254
p415
aVHIST2604,
p416
ag390
aFnan
aFnan
aFnan
aFnan
aFnan
aFnan
aFnan
aFnan
aFnan
aFnan
aFnan
aFnan
aVHIST2054
p417
aFnan
aFnan
aFnan
aFnan
aFnan
aFnan
ag416
aVSOC2604
p418
ag370
aFnan
aFnan
aFnan
aFnan
aFnan
aFnan
aFnan
aFnan
aFnan
aFnan
aFnan
aFnan
ag409
aVRLCL2204
p419
aFnan
aFnan
aVSOC2254
p420
aFnan
aFnan
aFnan
aFnan
aFnan
aFnan
aFnan
aFnan
aFnan
aFnan
aVALS-3404/UG/P
p421
aFnan
aFnan
aFnan
aFnan
aVARCH-1015/UG/P
p422
aVARCH-3115/UG/P
p423
aFnan
aFnan
aFnan
aVART-2385/UG/P
p424
aFnan
ag424
aFnan
aFnan
ag424
ag424
ag424
aFnan
aVPREREQUISTES
p425
aVART-2386/UG/P
p426
ag426
ag426
ag426
aVART-1104/UG/P
p427
aFnan
aFnan
aFnan
aFnan
aFnan
aFnan
aFnan
aFnan
aFnan
aFnan
aVPHIL-2894/UG/P
p428
aVOR PSCI-
p429
aV2894/UG/P OR
p430
aVECON-2894/UG/P
p431
aFnan
aFnan
aFnan
aFnan
aFnan
aFnan
aFnan
ag425
aFnan
aFnan
aFnan
aFnan
aFnan
aFnan
aFnan
aVENGL-1106/UG/P
p432
aVOR ENGL-
p433
aV1204H/UG/P OR
p434
aVCOMM-
p435
aV1016/UG/P
p436
ag432
ag433
ag434
ag435
ag436
aFnan
aFnan
aFnan
aV(FR-3105/UG/P
p437
aVAND FR-
p438
aV3106/UG/P)
p439
ag437
ag438
ag439
aVFR-3304/UG/P
p440
ag438
aV3105/UG/P AND
p441
aVFR-3106/UG/P
p442
ag425
ag440
ag438
ag441
ag442
ag440
aFnan
aFnan
aFnan
aV(GER-3105/UG/P
p443
aVAND GER-
p444
aV3106/UG/P) OR
p445
ag443
ag444
aV3204/UG/P) OR
p446
ag443
ag444
aV3306/UG/P) OR
p447
aV(GER-3106/UG/P
p448
ag444
ag446
ag448
ag444
aV3306/UG/P)
p449
aVGER-3105/UG/P
p450
aVOR GER-
p451
aV3106/UG/P
p452
aFnan
aFnan
aFnan
aFnan
ag425
aFnan
aFnan
aFnan
aFnan
aFnan
aFnan
aFnan
aFnan
aFnan
aFnan
aFnan
aFnan
aFnan
aFnan
aFnan
aFnan
aFnan
aFnan
aFnan
aFnan
aFnan
aFnan
aFnan
aFnan
aFnan
aFnan
aFnan
aFnan
ag425
aFnan
aFnan
aFnan
aFnan
aFnan
aFnan
aFnan
aFnan
aFnan
aFnan
aFnan
aFnan
aFnan
aFnan
aFnan
aFnan
aFnan
aFnan
aFnan
aFnan
aFnan
aVPSCI-2014/UG/P
p453
ag453
aFnan
aFnan
aFnan
aFnan
aFnan
ag425
aFnan
aFnan
aFnan
aFnan
aFnan
ag428
ag429
ag430
ag431
aFnan
aFnan
ag453
ag453
ag428
ag429
ag430
ag431
aFnan
aFnan
aFnan
aFnan
aFnan
aFnan
aFnan
aFnan
aFnan
aFnan
ag425
aFnan
aFnan
aFnan
aFnan
aFnan
aFnan
aFnan
aFnan
aFnan
aFnan
aFnan
aFnan
aFnan
aFnan
aFnan
aFnan
aVRLCL-2424/UG/P
p454
ag454
aFnan
ag432
ag433
aV1204H/UG/P
p455
ag432
ag433
ag455
ag425
aFnan
aFnan
aFnan
aFnan
aVWGS-1824/UG/P
p456
aFnan
aFnan
aFnan
aFnan
aFnan
aFnan
aVSPAN-3304/UG/P
p457
ag457
ag457
ag457
aFnan
ag457
aFnan
aFnan
aFnan
aFnan
aFnan
aFnan
aFnan
aFnan
aFnan
aFnan
aFnan
ag425
aFnan
aFnan
aVSTS-1504/UG/P
p458
aFnan
aFnan
aFnan
aFnan
aFnan
aFnan
aFnan
aFnan
aFnan
aFnan
aFnan
aVWGS-1824//
p459
ag459
ag459
aFnan
aFnan
aFnan
aFnan
aFnan
aFnan
aFnan
aFnan
aFnan
aFnan
aFnan
aFnan
aFnan
aVPre: Junior standing.
p460
aVTaught in English.
p461
aFnan
aFnan
aFnan
aFnan
aFnan
aFnan
aFnan
aFnan
aFnan
aFnan
aFnan
aFnan
aFnan
aFnan
aVOTHER_INFORMATION
p462
aFnan
aFnan
aFnan
aFnan
aVPre: Six credits of social sciences from
p463
aVPathways Minor in the Visual Arts and
p464
aVSociety checksheet.
p465
aFnan
aFnan
aVIn English.
p466
aFnan
aFnan
aFnan
aFnan
aFnan
aVPre: Senior standing.
p467
aFnan
aFnan
aFnan
aFnan
aFnan
aFnan
aFnan
aFnan
aFnan
aFnan
ag462
ag466
aFnan
aFnan
aVIn English. One 2000 level English
p468
aVliterature course required.
p469
ag468
aVcourse required.
p470
aFnan
aFnan
aFnan
aFnan
aFnan
aFnan
aFnan
aFnan
aFnan
aFnan
aFnan
aFnan
ag466
aFnan
aFnan
aFnan
aFnan
aFnan
aFnan
aFnan
aFnan
aFnan
aFnan
ag462
aFnan
aFnan
aFnan
aFnan
aVTaught in French.
p471
aFnan
aFnan
ag461
aFnan
aFnan
aFnan
aFnan
aFnan
aFnan
aFnan
aFnan
aFnan
aFnan
aFnan
aFnan
aFnan
aFnan
aFnan
aFnan
aFnan
aFnan
aVOne 2000- level English literature course
p472
aVrequired.
p473
aFnan
aFnan
ag462
aFnan
aFnan
aFnan
aFnan
aFnan
aFnan
aFnan
aFnan
aFnan
aFnan
aFnan
aFnan
aFnan
aFnan
aFnan
aFnan
aFnan
aFnan
aFnan
aFnan
aFnan
ag460
aFnan
aFnan
aFnan
aFnan
aVMembership in the Residential
p474
aVLeadership Community required.
p475
ag462
aFnan
aFnan
aFnan
aFnan
aFnan
aFnan
aFnan
aFnan
aFnan
aFnan
aFnan
aFnan
aFnan
aFnan
aFnan
aFnan
aFnan
aFnan
aFnan
aFnan
aFnan
aFnan
aFnan
aV3 Philosophy credits required.
p476
aFnan
ag476
ag476
ag476
ag462
ag476
aFnan
ag476
aVOne year of science and 3 philosophy
p477
aVcredits required.
p478
ag467
aFnan
aFnan
aFnan
aFnan
aFnan
aFnan
aFnan
ag467
aFnan
aFnan
aFnan
aFnan
aFnan
aFnan
aFnan
aFnan
aFnan
aFnan
aFnan
aFnan
aFnan
ag462
aFnan
aFnan
aFnan
aFnan
aFnan
aFnan
aFnan
aFnan
aFnan
aFnan
ag466
aFnan
aFnan
aFnan
aFnan
aFnan
aFnan
aFnan
ag466
ag461
aFnan
aFnan
ag461
aFnan
aFnan
ag462
aVIn English.  One 2000-level English
p479
ag469
aVApproved for Area II only when taken
p480
aVonly in combination with AFST 1714.
p481
aFnan
aFnan
aFnan
ag466
ag466
ag466
aFnan
aFnan
aVTaught in Spanish.
p482
aFnan
ag482
aFnan
ag482
aFnan
aFnan
aFnan
aFnan
aFnan
aFnan
aFnan
aFnan
aFnan
aFnan
aFnan
ag462
aFnan
aFnan
aVCourse repeatable up to 12 hours with
p483
aVdifferent topics.  Junior Standing.
p484
aFnan
aFnan
aVJunior, senior or graduate standing
p485
ag473
aFnan
aFnan
aFnan
aFnan
aFnan
aFnan
aFnan
aFnan
aFnan
atp486
ba(lp487
g15
(g16
(dp488
g18
g19
(g20
(I0
tp489
g22
tp490
Rp491
(I1
(L6L
tp492
g29
I00
(lp493
g33
ag34
ag35
ag36
ag37
ag38
atp494
bsg40
Nstp495
Rp496
a(dp497
S'0.14.1'
p498
(dp499
S'axes'
p500
g14
sS'blocks'
p501
(lp502
(dp503
S'mgr_locs'
p504
c__builtin__
slice
p505
(I0
I6
L1L
tp506
Rp507
sS'values'
p508
g53
sasstp509
bsb.